target datalayout = "e-m:e-p270:32:32-p271:32:32-p272:64:64-i64:64-i128:128-f80:128-n8:16:32:64-S128"
target triple = "x86_64-pc-linux-gnu"

%struct.blob = type { ptr, ptr, i64, i64, i32 }

@.str.1 = private unnamed_addr constant [10 x i8] c"b != NULL\00", align 1
@.str.2 = private unnamed_addr constant [108 x i8] c"generated/home/dtcxzyw/WorkSpace/Projects/compilers/llvm-opt-benchmark/bench/clamav/clamav/libclamav/blob.c\00", align 1
@blobAddData.pagesize = internal global i32 0, align 4
@__PRETTY_FUNCTION__.blobAddData = private unnamed_addr constant [55 x i8] c"int blobAddData(blob *, const unsigned char *, size_t)\00", align 1
@.str.7 = private unnamed_addr constant [13 x i8] c"data != NULL\00", align 1
@.str.8 = private unnamed_addr constant [23 x i8] c"Reopening closed blob\0A\00", align 1
@.str.9 = private unnamed_addr constant [12 x i8] c"b->len == 0\00", align 1
@.str.10 = private unnamed_addr constant [13 x i8] c"b->size == 0\00", align 1

; Function Attrs: nounwind uwtable
define internal i32 @cli_getpagesize() #0 {
  %1 = call i64 @sysconf(i32 noundef 30) #9
  %2 = trunc i64 %1 to i32
  ret i32 %2
}

; Function Attrs: nounwind uwtable
define i32 @blobAddData(ptr noundef %0, ptr noundef %1, i64 noundef %2) #0 {
  %4 = alloca i32, align 4
  %5 = alloca ptr, align 8
  %6 = alloca ptr, align 8
  %7 = alloca i64, align 8
  %8 = alloca i32, align 4
  %9 = alloca ptr, align 8
  store ptr %0, ptr %5, align 8
  store ptr %1, ptr %6, align 8
  store i64 %2, ptr %7, align 8
  %10 = load ptr, ptr %5, align 8
  %11 = icmp ne ptr %10, null
  br i1 %11, label %12, label %13

12:                                               ; preds = %3
  br label %14

13:                                               ; preds = %3
  call void @__assert_fail(ptr noundef @.str.1, ptr noundef @.str.2, i32 noundef 184, ptr noundef @__PRETTY_FUNCTION__.blobAddData) #8
  unreachable

14:                                               ; preds = %12
  %15 = load ptr, ptr %6, align 8
  %16 = icmp ne ptr %15, null
  br i1 %16, label %17, label %18

17:                                               ; preds = %14
  br label %19

18:                                               ; preds = %14
  call void @__assert_fail(ptr noundef @.str.7, ptr noundef @.str.2, i32 noundef 188, ptr noundef @__PRETTY_FUNCTION__.blobAddData) #8
  unreachable

19:                                               ; preds = %17
  %20 = load i64, ptr %7, align 8
  %21 = icmp eq i64 %20, 0
  br i1 %21, label %22, label %23

22:                                               ; preds = %19
  store i32 0, ptr %4, align 4
  br label %152

23:                                               ; preds = %19
  %24 = load ptr, ptr %5, align 8
  %25 = getelementptr inbounds %struct.blob, ptr %24, i32 0, i32 4
  %26 = load i32, ptr %25, align 8
  %27 = icmp ne i32 %26, 0
  br i1 %27, label %28, label %31

28:                                               ; preds = %23
  call void (ptr, ...) @cli_warnmsg(ptr noundef @.str.8)
  %29 = load ptr, ptr %5, align 8
  %30 = getelementptr inbounds %struct.blob, ptr %29, i32 0, i32 4
  store i32 0, ptr %30, align 8
  br label %31

31:                                               ; preds = %28, %23
  %32 = load i32, ptr @blobAddData.pagesize, align 4
  %33 = icmp eq i32 %32, 0
  br i1 %33, label %34, label %40

34:                                               ; preds = %31
  %35 = call i32 @cli_getpagesize()
  store i32 %35, ptr @blobAddData.pagesize, align 4
  %36 = load i32, ptr @blobAddData.pagesize, align 4
  %37 = icmp sle i32 %36, 0
  br i1 %37, label %38, label %39

38:                                               ; preds = %34
  store i32 4096, ptr @blobAddData.pagesize, align 4
  br label %39

39:                                               ; preds = %38, %34
  br label %40

40:                                               ; preds = %39, %31
  %41 = load i32, ptr @blobAddData.pagesize, align 4
  store i32 %41, ptr %8, align 4
  %42 = load i64, ptr %7, align 8
  %43 = load i32, ptr @blobAddData.pagesize, align 4
  %44 = sext i32 %43 to i64
  %45 = icmp uge i64 %42, %44
  br i1 %45, label %46, label %56

46:                                               ; preds = %40
  %47 = load i64, ptr %7, align 8
  %48 = load i32, ptr @blobAddData.pagesize, align 4
  %49 = sext i32 %48 to i64
  %50 = udiv i64 %47, %49
  %51 = add i64 %50, 1
  %52 = load i32, ptr @blobAddData.pagesize, align 4
  %53 = sext i32 %52 to i64
  %54 = mul i64 %51, %53
  %55 = trunc i64 %54 to i32
  store i32 %55, ptr %8, align 4
  br label %56

56:                                               ; preds = %46, %40
  %57 = load ptr, ptr %5, align 8
  %58 = getelementptr inbounds %struct.blob, ptr %57, i32 0, i32 1
  %59 = load ptr, ptr %58, align 8
  %60 = icmp eq ptr %59, null
  br i1 %60, label %61, label %93

61:                                               ; preds = %56
  %62 = load ptr, ptr %5, align 8
  %63 = getelementptr inbounds %struct.blob, ptr %62, i32 0, i32 2
  %64 = load i64, ptr %63, align 8
  %65 = icmp eq i64 %64, 0
  br i1 %65, label %66, label %67

66:                                               ; preds = %61
  br label %68

67:                                               ; preds = %61
  call void @__assert_fail(ptr noundef @.str.9, ptr noundef @.str.2, i32 noundef 224, ptr noundef @__PRETTY_FUNCTION__.blobAddData) #8
  unreachable

68:                                               ; preds = %66
  %69 = load ptr, ptr %5, align 8
  %70 = getelementptr inbounds %struct.blob, ptr %69, i32 0, i32 3
  %71 = load i64, ptr %70, align 8
  %72 = icmp eq i64 %71, 0
  br i1 %72, label %73, label %74

73:                                               ; preds = %68
  br label %75

74:                                               ; preds = %68
  call void @__assert_fail(ptr noundef @.str.10, ptr noundef @.str.2, i32 noundef 225, ptr noundef @__PRETTY_FUNCTION__.blobAddData) #8
  unreachable

75:                                               ; preds = %73
  %76 = load i32, ptr %8, align 4
  %77 = sext i32 %76 to i64
  %78 = load ptr, ptr %5, align 8
  %79 = getelementptr inbounds %struct.blob, ptr %78, i32 0, i32 3
  store i64 %77, ptr %79, align 8
  %80 = load i32, ptr %8, align 4
  %81 = sext i32 %80 to i64
  %82 = call ptr @cli_max_malloc(i64 noundef %81)
  %83 = load ptr, ptr %5, align 8
  %84 = getelementptr inbounds %struct.blob, ptr %83, i32 0, i32 1
  store ptr %82, ptr %84, align 8
  %85 = load ptr, ptr %5, align 8
  %86 = getelementptr inbounds %struct.blob, ptr %85, i32 0, i32 1
  %87 = load ptr, ptr %86, align 8
  %88 = icmp eq ptr null, %87
  br i1 %88, label %89, label %92

89:                                               ; preds = %75
  %90 = load ptr, ptr %5, align 8
  %91 = getelementptr inbounds %struct.blob, ptr %90, i32 0, i32 3
  store i64 0, ptr %91, align 8
  store i32 -1, ptr %4, align 4
  br label %152

92:                                               ; preds = %75
  br label %128

93:                                               ; preds = %56
  %94 = load ptr, ptr %5, align 8
  %95 = getelementptr inbounds %struct.blob, ptr %94, i32 0, i32 3
  %96 = load i64, ptr %95, align 8
  %97 = load ptr, ptr %5, align 8
  %98 = getelementptr inbounds %struct.blob, ptr %97, i32 0, i32 2
  %99 = load i64, ptr %98, align 8
  %100 = load i64, ptr %7, align 8
  %101 = add nsw i64 %99, %100
  %102 = icmp slt i64 %96, %101
  br i1 %102, label %103, label %127

103:                                              ; preds = %93
  %104 = load ptr, ptr %5, align 8
  %105 = getelementptr inbounds %struct.blob, ptr %104, i32 0, i32 1
  %106 = load ptr, ptr %105, align 8
  %107 = load ptr, ptr %5, align 8
  %108 = getelementptr inbounds %struct.blob, ptr %107, i32 0, i32 3
  %109 = load i64, ptr %108, align 8
  %110 = load i32, ptr %8, align 4
  %111 = sext i32 %110 to i64
  %112 = add nsw i64 %109, %111
  %113 = call ptr @cli_max_realloc(ptr noundef %106, i64 noundef %112)
  store ptr %113, ptr %9, align 8
  %114 = load ptr, ptr %9, align 8
  %115 = icmp eq ptr %114, null
  br i1 %115, label %116, label %117

116:                                              ; preds = %103
  store i32 -1, ptr %4, align 4
  br label %152

117:                                              ; preds = %103
  %118 = load i32, ptr %8, align 4
  %119 = sext i32 %118 to i64
  %120 = load ptr, ptr %5, align 8
  %121 = getelementptr inbounds %struct.blob, ptr %120, i32 0, i32 3
  %122 = load i64, ptr %121, align 8
  %123 = add nsw i64 %122, %119
  store i64 %123, ptr %121, align 8
  %124 = load ptr, ptr %9, align 8
  %125 = load ptr, ptr %5, align 8
  %126 = getelementptr inbounds %struct.blob, ptr %125, i32 0, i32 1
  store ptr %124, ptr %126, align 8
  br label %127

127:                                              ; preds = %117, %93
  br label %128

128:                                              ; preds = %127, %92
  %129 = load ptr, ptr %5, align 8
  %130 = getelementptr inbounds %struct.blob, ptr %129, i32 0, i32 1
  %131 = load ptr, ptr %130, align 8
  %132 = icmp ne ptr %131, null
  br i1 %132, label %133, label %148

133:                                              ; preds = %128
  %134 = load ptr, ptr %5, align 8
  %135 = getelementptr inbounds %struct.blob, ptr %134, i32 0, i32 1
  %136 = load ptr, ptr %135, align 8
  %137 = load ptr, ptr %5, align 8
  %138 = getelementptr inbounds %struct.blob, ptr %137, i32 0, i32 2
  %139 = load i64, ptr %138, align 8
  %140 = getelementptr inbounds i8, ptr %136, i64 %139
  %141 = load ptr, ptr %6, align 8
  %142 = load i64, ptr %7, align 8
  call void @llvm.memcpy.p0.p0.i64(ptr align 1 %140, ptr align 1 %141, i64 %142, i1 false)
  %143 = load i64, ptr %7, align 8
  %144 = load ptr, ptr %5, align 8
  %145 = getelementptr inbounds %struct.blob, ptr %144, i32 0, i32 2
  %146 = load i64, ptr %145, align 8
  %147 = add nsw i64 %146, %143
  store i64 %147, ptr %145, align 8
  br label %151

148:                                              ; preds = %128
  %149 = load ptr, ptr %5, align 8
  %150 = getelementptr inbounds %struct.blob, ptr %149, i32 0, i32 3
  store i64 0, ptr %150, align 8
  store i32 -1, ptr %4, align 4
  br label %152

151:                                              ; preds = %133
  store i32 0, ptr %4, align 4
  br label %152

152:                                              ; preds = %151, %148, %116, %89, %22
  %153 = load i32, ptr %4, align 4
  ret i32 %153
}