; Function Attrs: nounwind uwtable
define noundef i32 @blobAddData(ptr noundef %0, ptr noundef readonly %1, i64 noundef %2) local_unnamed_addr #2 {
  %.not = icmp eq ptr %0, null
  br i1 %.not, label %4, label %5

4:                                                ; preds = %3
  tail call void @__assert_fail(ptr noundef nonnull @.str.1, ptr noundef nonnull @.str.2, i32 noundef 184, ptr noundef nonnull @__PRETTY_FUNCTION__.blobAddData) #17
  unreachable

5:                                                ; preds = %3
  %.not44 = icmp eq ptr %1, null
  br i1 %.not44, label %6, label %7

6:                                                ; preds = %5
  tail call void @__assert_fail(ptr noundef nonnull @.str.7, ptr noundef nonnull @.str.2, i32 noundef 188, ptr noundef nonnull @__PRETTY_FUNCTION__.blobAddData) #17
  unreachable

7:                                                ; preds = %5
  %8 = icmp eq i64 %2, 0
  br i1 %8, label %68, label %9

9:                                                ; preds = %7
  %10 = getelementptr inbounds i8, ptr %0, i64 32
  %11 = load i32, ptr %10, align 8
  %.not45 = icmp eq i32 %11, 0
  br i1 %.not45, label %13, label %12

12:                                               ; preds = %9
  tail call void (ptr, ...) @cli_warnmsg(ptr noundef nonnull @.str.8) #16
  store i32 0, ptr %10, align 8
  br label %13

13:                                               ; preds = %12, %9
  %14 = load i32, ptr @blobAddData.pagesize, align 4
  %15 = icmp eq i32 %14, 0
  br i1 %15, label %16, label %20

16:                                               ; preds = %13
  %17 = tail call i64 @sysconf(i32 noundef 30) #16
  %18 = trunc i64 %17 to i32
  %19 = icmp slt i32 %18, 1
  %spec.store.select = select i1 %19, i32 4096, i32 %18
  store i32 %spec.store.select, ptr @blobAddData.pagesize, align 4
  br label %20

20:                                               ; preds = %16, %13
  %21 = phi i32 [ %spec.store.select, %16 ], [ %14, %13 ]
  %22 = sext i32 %21 to i64
  %.not46 = icmp ugt i64 %22, %2
  br i1 %.not46, label %28, label %23

23:                                               ; preds = %20
  %24 = udiv i64 %2, %22
  %25 = trunc i64 %24 to i32
  %26 = add i32 %25, 1
  %27 = mul i32 %26, %21
  br label %28

28:                                               ; preds = %23, %20
  %.035 = phi i32 [ %27, %23 ], [ %21, %20 ]
  %29 = getelementptr inbounds i8, ptr %0, i64 8
  %30 = load ptr, ptr %29, align 8
  %31 = icmp eq ptr %30, null
  br i1 %31, label %32, label %47

32:                                               ; preds = %28
  %33 = getelementptr inbounds i8, ptr %0, i64 16
  %34 = load i64, ptr %33, align 8
  %35 = icmp eq i64 %34, 0
  br i1 %35, label %37, label %36

36:                                               ; preds = %32
  tail call void @__assert_fail(ptr noundef nonnull @.str.9, ptr noundef nonnull @.str.2, i32 noundef 224, ptr noundef nonnull @__PRETTY_FUNCTION__.blobAddData) #17
  unreachable

37:                                               ; preds = %32
  %38 = getelementptr inbounds i8, ptr %0, i64 24
  %39 = load i64, ptr %38, align 8
  %40 = icmp eq i64 %39, 0
  br i1 %40, label %42, label %41

41:                                               ; preds = %37
  tail call void @__assert_fail(ptr noundef nonnull @.str.10, ptr noundef nonnull @.str.2, i32 noundef 225, ptr noundef nonnull @__PRETTY_FUNCTION__.blobAddData) #17
  unreachable

42:                                               ; preds = %37
  %43 = sext i32 %.035 to i64
  store i64 %43, ptr %38, align 8
  %44 = tail call ptr @cli_max_malloc(i64 noundef %43) #16
  store ptr %44, ptr %29, align 8
  %45 = icmp eq ptr %44, null
  br i1 %45, label %46, label %.thread

46:                                               ; preds = %42
  store i64 0, ptr %38, align 8
  br label %68

47:                                               ; preds = %28
  %48 = getelementptr inbounds i8, ptr %0, i64 24
  %49 = load i64, ptr %48, align 8
  %50 = getelementptr inbounds i8, ptr %0, i64 16
  %51 = load i64, ptr %50, align 8
  %52 = add nsw i64 %51, %2
  %53 = icmp slt i64 %49, %52
  br i1 %53, label %54, label %.thread

54:                                               ; preds = %47
  %55 = sext i32 %.035 to i64
  %56 = add nsw i64 %49, %55
  %57 = tail call ptr @cli_max_realloc(ptr noundef nonnull %30, i64 noundef %56) #16
  %58 = icmp eq ptr %57, null
  br i1 %58, label %68, label %59

59:                                               ; preds = %54
  %60 = load i64, ptr %48, align 8
  %61 = add nsw i64 %60, %55
  store i64 %61, ptr %48, align 8
  store ptr %57, ptr %29, align 8
  br label %.thread

.thread:                                          ; preds = %47, %42, %59
  %62 = phi ptr [ %44, %42 ], [ %57, %59 ], [ %30, %47 ]
  %63 = getelementptr inbounds i8, ptr %0, i64 16
  %64 = load i64, ptr %63, align 8
  %65 = getelementptr inbounds i8, ptr %62, i64 %64
  tail call void @llvm.memcpy.p0.p0.i64(ptr nonnull align 1 %65, ptr nonnull align 1 %1, i64 %2, i1 false)
  %66 = load i64, ptr %63, align 8
  %67 = add nsw i64 %66, %2
  store i64 %67, ptr %63, align 8
  br label %68

68:                                               ; preds = %54, %7, %.thread, %46
  %.0 = phi i32 [ -1, %46 ], [ 0, %.thread ], [ 0, %7 ], [ -1, %54 ]
  ret i32 %.0
}